---
triple:          'arm64-apple-darwin'
binary-path:     '/Users/rishamaq/Development/DataStructures-Algorithms/index'
relocations:
  - { offset: 0x1FD2D, size: 0x8, addend: 0x0, symName: __ZStL8__ioinit, symObjAddr: 0xCC7A8, symBinAddr: 0x100010000, symSize: 0x0 }
  - { offset: 0x209D5, size: 0x8, addend: 0x0, symName: __ZNSt10_Head_baseILm0ERKNSt7__cxx1112basic_stringIcSt11char_traitsIcESaIcEEELb0EE7_M_headERS8_, symObjAddr: 0x5198, symBinAddr: 0x1000076F8, symSize: 0x18 }
  - { offset: 0x209FE, size: 0x8, addend: 0x0, symName: __ZNSt11__copy_moveILb0ELb0ESt26random_access_iterator_tagE12__assign_oneIPSt13unordered_mapINSt7__cxx1112basic_stringIcSt11char_traitsIcESaIcEEES9_St4hashIS9_ESt8equal_toIS9_ESaISt4pairIKS9_S9_EEESJ_EEvPT_PT0_, symObjAddr: 0x5170, symBinAddr: 0x1000076D0, symSize: 0x28 }
  - { offset: 0x20A4B, size: 0x8, addend: 0x0, symName: __ZNSt11_Tuple_implILm0EJRKNSt7__cxx1112basic_stringIcSt11char_traitsIcESaIcEEEEE7_M_headERS8_, symObjAddr: 0x5154, symBinAddr: 0x1000076B4, symSize: 0x1C }
  - { offset: 0x20A75, size: 0x8, addend: 0x0, symName: __ZNSt20__copy_move_backwardILb0ELb1ESt26random_access_iterator_tagE13__copy_move_bIPSt13unordered_mapINSt7__cxx1112basic_stringIcSt11char_traitsIcESaIcEEES9_St4hashIS9_ESt8equal_toIS9_ESaISt4pairIKS9_S9_EEESJ_EEPT0_PT_SN_SL_, symObjAddr: 0x50A8, symBinAddr: 0x100007608, symSize: 0xAC }
  - { offset: 0x20AE4, size: 0x8, addend: 0x0, symName: __ZNSt11__copy_moveILb0ELb1ESt26random_access_iterator_tagE8__copy_mIPSt13unordered_mapINSt7__cxx1112basic_stringIcSt11char_traitsIcESaIcEEES9_St4hashIS9_ESt8equal_toIS9_ESaISt4pairIKS9_S9_EEESJ_EEPT0_PT_SN_SL_, symObjAddr: 0x5018, symBinAddr: 0x100007578, symSize: 0x90 }
  - { offset: 0x20B53, size: 0x8, addend: 0x0, symName: __ZSt12__get_helperILm0ERKNSt7__cxx1112basic_stringIcSt11char_traitsIcESaIcEEEJEERT0_RSt11_Tuple_implIXT_EJS8_DpT1_EE, symObjAddr: 0x4FFC, symBinAddr: 0x10000755C, symSize: 0x1C }
  - { offset: 0x20B95, size: 0x8, addend: 0x0, symName: __ZSt23__copy_move_backward_a2ILb0EPPSt13unordered_mapINSt7__cxx1112basic_stringIcSt11char_traitsIcESaIcEEES6_St4hashIS6_ESt8equal_toIS6_ESaISt4pairIKS6_S6_EEESH_ET1_T0_SJ_SI_, symObjAddr: 0x4FD0, symBinAddr: 0x100007530, symSize: 0x2C }
  - { offset: 0x20BFD, size: 0x8, addend: 0x0, symName: __ZSt14__copy_move_a2ILb0EPPSt13unordered_mapINSt7__cxx1112basic_stringIcSt11char_traitsIcESaIcEEES6_St4hashIS6_ESt8equal_toIS6_ESaISt4pairIKS6_S6_EEESH_ET1_T0_SJ_SI_, symObjAddr: 0x4FA4, symBinAddr: 0x100007504, symSize: 0x2C }
  - { offset: 0x20C6C, size: 0x8, addend: 0x0, symName: __ZSt7forwardIRKNSt7__cxx1112basic_stringIcSt11char_traitsIcESaIcEEEEOT_RNSt16remove_referenceIS8_E4typeE, symObjAddr: 0x4F90, symBinAddr: 0x1000074F0, symSize: 0x14 }
  - { offset: 0x20C9E, size: 0x8, addend: 0x0, symName: __ZSt3getILm0EJRKNSt7__cxx1112basic_stringIcSt11char_traitsIcESaIcEEEEERNSt13tuple_elementIXT_ESt5tupleIJDpT0_EEE4typeERSC_, symObjAddr: 0x4F74, symBinAddr: 0x1000074D4, symSize: 0x1C }
  - { offset: 0x20CDD, size: 0x8, addend: 0x0, symName: __ZSt23__copy_move_backward_a1ILb0EPPSt13unordered_mapINSt7__cxx1112basic_stringIcSt11char_traitsIcESaIcEEES6_St4hashIS6_ESt8equal_toIS6_ESaISt4pairIKS6_S6_EEESH_ET1_T0_SJ_SI_, symObjAddr: 0x4F48, symBinAddr: 0x1000074A8, symSize: 0x2C }
  - { offset: 0x20D45, size: 0x8, addend: 0x0, symName: __ZSt12__niter_wrapIPPSt13unordered_mapINSt7__cxx1112basic_stringIcSt11char_traitsIcESaIcEEES6_St4hashIS6_ESt8equal_toIS6_ESaISt4pairIKS6_S6_EEEET_RKSI_SI_, symObjAddr: 0x4F30, symBinAddr: 0x100007490, symSize: 0x18 }
  - { offset: 0x20D81, size: 0x8, addend: 0x0, symName: __ZSt14__copy_move_a1ILb0EPPSt13unordered_mapINSt7__cxx1112basic_stringIcSt11char_traitsIcESaIcEEES6_St4hashIS6_ESt8equal_toIS6_ESaISt4pairIKS6_S6_EEESH_ET1_T0_SJ_SI_, symObjAddr: 0x4F04, symBinAddr: 0x100007464, symSize: 0x2C }
  - { offset: 0x20DE9, size: 0x8, addend: 0x0, symName: __ZSt12__niter_baseIPPSt13unordered_mapINSt7__cxx1112basic_stringIcSt11char_traitsIcESaIcEEES6_St4hashIS6_ESt8equal_toIS6_ESaISt4pairIKS6_S6_EEEET_SI_, symObjAddr: 0x4EF0, symBinAddr: 0x100007450, symSize: 0x14 }
  - { offset: 0x20E89, size: 0x8, addend: 0x0, symName: __ZNSt4pairIKNSt7__cxx1112basic_stringIcSt11char_traitsIcESaIcEEES5_EC1IJRS6_EJLm0EEJEJEEERSt5tupleIJDpT_EERSA_IJDpT1_EESt12_Index_tupleIJXspT0_EEESJ_IJXspT2_EEE, symObjAddr: 0x4E98, symBinAddr: 0x1000073F8, symSize: 0x58 }
  - { offset: 0x20EF8, size: 0x8, addend: 0x0, symName: __ZSt11__addressofINSt8__detail10_Hash_nodeISt4pairIKNSt7__cxx1112basic_stringIcSt11char_traitsIcESaIcEEES8_ELb1EEEEPT_RSC_, symObjAddr: 0x4E84, symBinAddr: 0x1000073E4, symSize: 0x14 }
  - { offset: 0x20F2A, size: 0x8, addend: 0x0, symName: __ZSt22__copy_move_backward_aILb0EPPSt13unordered_mapINSt7__cxx1112basic_stringIcSt11char_traitsIcESaIcEEES6_St4hashIS6_ESt8equal_toIS6_ESaISt4pairIKS6_S6_EEESH_ET1_T0_SJ_SI_, symObjAddr: 0x4E24, symBinAddr: 0x100007384, symSize: 0x60 }
  - { offset: 0x20F92, size: 0x8, addend: 0x0, symName: __ZSt13__copy_move_aILb0EPPSt13unordered_mapINSt7__cxx1112basic_stringIcSt11char_traitsIcESaIcEEES6_St4hashIS6_ESt8equal_toIS6_ESaISt4pairIKS6_S6_EEESH_ET1_T0_SJ_SI_, symObjAddr: 0x4DC4, symBinAddr: 0x100007324, symSize: 0x60 }
  - { offset: 0x20FFA, size: 0x8, addend: 0x0, symName: __ZSt12__miter_baseIPPSt13unordered_mapINSt7__cxx1112basic_stringIcSt11char_traitsIcESaIcEEES6_St4hashIS6_ESt8equal_toIS6_ESaISt4pairIKS6_S6_EEEET_SI_, symObjAddr: 0x4DB0, symBinAddr: 0x100007310, symSize: 0x14 }
  - { offset: 0x21092, size: 0x8, addend: 0x0, symName: __ZNSt4pairIKNSt7__cxx1112basic_stringIcSt11char_traitsIcESaIcEEES5_EC1IJRS6_EJEEESt21piecewise_construct_tSt5tupleIJDpT_EESB_IJDpT0_EE, symObjAddr: 0x4D74, symBinAddr: 0x1000072D4, symSize: 0x3C }
  - { offset: 0x2110C, size: 0x8, addend: 0x0, symName: __ZNSt11_Tuple_implILm0EJRKNSt7__cxx1112basic_stringIcSt11char_traitsIcESaIcEEEEEC2EOS8_, symObjAddr: 0x4D4C, symBinAddr: 0x1000072AC, symSize: 0x28 }
  - { offset: 0x2113F, size: 0x8, addend: 0x0, symName: __ZNK9__gnu_cxx16__aligned_bufferISt4pairIKNSt7__cxx1112basic_stringIcSt11char_traitsIcESaIcEEES7_EE7_M_addrEv, symObjAddr: 0x4D38, symBinAddr: 0x100007298, symSize: 0x14 }
  - { offset: 0x21165, size: 0x8, addend: 0x0, symName: __ZSt8_DestroyISt13unordered_mapINSt7__cxx1112basic_stringIcSt11char_traitsIcESaIcEEES6_St4hashIS6_ESt8equal_toIS6_ESaISt4pairIKS6_S6_EEEEvPT_, symObjAddr: 0x4D18, symBinAddr: 0x100007278, symSize: 0x20 }
  - { offset: 0x21197, size: 0x8, addend: 0x0, symName: __ZSt11__addressofISt13unordered_mapINSt7__cxx1112basic_stringIcSt11char_traitsIcESaIcEEES6_St4hashIS6_ESt8equal_toIS6_ESaISt4pairIKS6_S6_EEEEPT_RSG_, symObjAddr: 0x4D04, symBinAddr: 0x100007264, symSize: 0x14 }
  - { offset: 0x211C9, size: 0x8, addend: 0x0, symName: __ZSt11__addressofIPNSt8__detail15_Hash_node_baseEEPT_RS3_, symObjAddr: 0x4CF0, symBinAddr: 0x100007250, symSize: 0x14 }
  - { offset: 0x211FB, size: 0x8, addend: 0x0, symName: __ZSt9addressofINSt8__detail10_Hash_nodeISt4pairIKNSt7__cxx1112basic_stringIcSt11char_traitsIcESaIcEEES8_ELb1EEEEPT_RSC_, symObjAddr: 0x4CD4, symBinAddr: 0x100007234, symSize: 0x1C }
  - { offset: 0x21292, size: 0x8, addend: 0x0, symName: __ZNSt4pairIKNSt7__cxx1112basic_stringIcSt11char_traitsIcESaIcEEES5_EC1ERKS7_, symObjAddr: 0x4C74, symBinAddr: 0x1000071D4, symSize: 0x60 }
  - { offset: 0x212C1, size: 0x8, addend: 0x0, symName: __ZNSt15__new_allocatorIPNSt8__detail15_Hash_node_baseEE8allocateEmPKv, symObjAddr: 0x4BF8, symBinAddr: 0x100007158, symSize: 0x7C }
  - { offset: 0x2134D, size: 0x8, addend: 0x0, symName: __ZNSt15__new_allocatorISt13unordered_mapINSt7__cxx1112basic_stringIcSt11char_traitsIcESaIcEEES6_St4hashIS6_ESt8equal_toIS6_ESaISt4pairIKS6_S6_EEEE8allocateEmPKv, symObjAddr: 0x4B60, symBinAddr: 0x1000070C0, symSize: 0x98 }
  - { offset: 0x213D5, size: 0x8, addend: 0x0, symName: __ZSt13copy_backwardIPPSt13unordered_mapINSt7__cxx1112basic_stringIcSt11char_traitsIcESaIcEEES6_St4hashIS6_ESt8equal_toIS6_ESaISt4pairIKS6_S6_EEESH_ET0_T_SJ_SI_, symObjAddr: 0x4B18, symBinAddr: 0x100007078, symSize: 0x48 }
  - { offset: 0x21433, size: 0x8, addend: 0x0, symName: __ZSt4copyIPPSt13unordered_mapINSt7__cxx1112basic_stringIcSt11char_traitsIcESaIcEEES6_St4hashIS6_ESt8equal_toIS6_ESaISt4pairIKS6_S6_EEESH_ET0_T_SJ_SI_, symObjAddr: 0x4AD0, symBinAddr: 0x100007030, symSize: 0x48 }
  - { offset: 0x214AB, size: 0x8, addend: 0x0, symName: __ZNSt15__new_allocatorINSt8__detail10_Hash_nodeISt4pairIKNSt7__cxx1112basic_stringIcSt11char_traitsIcESaIcEEES8_ELb1EEEE10deallocateEPSB_m, symObjAddr: 0x4A94, symBinAddr: 0x100006FF4, symSize: 0x3C }
  - { offset: 0x21578, size: 0x8, addend: 0x0, symName: __ZNSt5tupleIJRKNSt7__cxx1112basic_stringIcSt11char_traitsIcESaIcEEEEEC1EOS8_, symObjAddr: 0x4A6C, symBinAddr: 0x100006FCC, symSize: 0x28 }
  - { offset: 0x215A7, size: 0x8, addend: 0x0, symName: __ZNSt15__new_allocatorINSt8__detail10_Hash_nodeISt4pairIKNSt7__cxx1112basic_stringIcSt11char_traitsIcESaIcEEES8_ELb1EEEE8allocateEmPKv, symObjAddr: 0x49DC, symBinAddr: 0x100006F3C, symSize: 0x90 }
  - { offset: 0x21637, size: 0x8, addend: 0x0, symName: __ZN9__gnu_cxx16__aligned_bufferISt4pairIKNSt7__cxx1112basic_stringIcSt11char_traitsIcESaIcEEES7_EE7_M_addrEv, symObjAddr: 0x49C8, symBinAddr: 0x100006F28, symSize: 0x14 }
  - { offset: 0x2165D, size: 0x8, addend: 0x0, symName: __ZNSt8__detail15_Hashtable_baseINSt7__cxx1112basic_stringIcSt11char_traitsIcESaIcEEESt4pairIKS6_S6_ENS_10_Select1stESt8equal_toIS6_ESt4hashIS6_ENS_18_Mod_range_hashingENS_20_Default_ranged_hashENS_17_Hashtable_traitsILb1ELb0ELb1EEEE9_S_equalsEmRKNS_21_Hash_node_code_cacheILb1EEE, symObjAddr: 0x499C, symBinAddr: 0x100006EFC, symSize: 0x2C }
  - { offset: 0x2169C, size: 0x8, addend: 0x0, symName: __ZNK9__gnu_cxx16__aligned_bufferISt4pairIKNSt7__cxx1112basic_stringIcSt11char_traitsIcESaIcEEES7_EE6_M_ptrEv, symObjAddr: 0x4980, symBinAddr: 0x100006EE0, symSize: 0x1C }
  - { offset: 0x216C2, size: 0x8, addend: 0x0, symName: __ZNSt12_Destroy_auxILb0EE9__destroyIPSt13unordered_mapINSt7__cxx1112basic_stringIcSt11char_traitsIcESaIcEEES8_St4hashIS8_ESt8equal_toIS8_ESaISt4pairIKS8_S8_EEEEEvT_SJ_, symObjAddr: 0x4934, symBinAddr: 0x100006E94, symSize: 0x4C }
  - { offset: 0x2171E, size: 0x8, addend: 0x0, symName: __ZNSt15__new_allocatorISt13unordered_mapINSt7__cxx1112basic_stringIcSt11char_traitsIcESaIcEEES6_St4hashIS6_ESt8equal_toIS6_ESaISt4pairIKS6_S6_EEEE10deallocateEPSF_m, symObjAddr: 0x48F8, symBinAddr: 0x100006E58, symSize: 0x3C }
  - { offset: 0x21768, size: 0x8, addend: 0x0, symName: __ZNSt15__new_allocatorIPSt13unordered_mapINSt7__cxx1112basic_stringIcSt11char_traitsIcESaIcEEES6_St4hashIS6_ESt8equal_toIS6_ESaISt4pairIKS6_S6_EEEE8allocateEmPKv, symObjAddr: 0x487C, symBinAddr: 0x100006DDC, symSize: 0x7C }
  - { offset: 0x217F4, size: 0x8, addend: 0x0, symName: __ZNSt15__new_allocatorIPNSt8__detail15_Hash_node_baseEE10deallocateEPS2_m, symObjAddr: 0x484C, symBinAddr: 0x100006DAC, symSize: 0x30 }
  - { offset: 0x21862, size: 0x8, addend: 0x0, symName: __ZNSt15__new_allocatorIPNSt8__detail15_Hash_node_baseEED2Ev, symObjAddr: 0x4838, symBinAddr: 0x100006D98, symSize: 0x14 }
  - { offset: 0x2189A, size: 0x8, addend: 0x0, symName: __ZSt9addressofIPNSt8__detail15_Hash_node_baseEEPT_RS3_, symObjAddr: 0x481C, symBinAddr: 0x100006D7C, symSize: 0x1C }
  - { offset: 0x218F4, size: 0x8, addend: 0x0, symName: __ZNSt8__detail13_NodePtrGuardINS_16_Hashtable_allocISaINS_10_Hash_nodeISt4pairIKNSt7__cxx1112basic_stringIcSt11char_traitsIcESaIcEEES9_ELb1EEEEEEPSC_ED1Ev, symObjAddr: 0x47D8, symBinAddr: 0x100006D38, symSize: 0x44 }
  - { offset: 0x21916, size: 0x8, addend: 0x0, symName: __ZNSt19__ptr_traits_ptr_toIPNSt8__detail10_Hash_nodeISt4pairIKNSt7__cxx1112basic_stringIcSt11char_traitsIcESaIcEEES8_ELb1EEESB_Lb0EE10pointer_toERSB_, symObjAddr: 0x47BC, symBinAddr: 0x100006D1C, symSize: 0x1C }
  - { offset: 0x21997, size: 0x8, addend: 0x0, symName: __ZNSt4pairIKNSt7__cxx1112basic_stringIcSt11char_traitsIcESaIcEEES5_ED1Ev, symObjAddr: 0x4790, symBinAddr: 0x100006CF0, symSize: 0x2C }
  - { offset: 0x219FD, size: 0x8, addend: 0x0, symName: __ZSt12__to_addressIPNSt8__detail15_Hash_node_baseEEPT_S4_, symObjAddr: 0x477C, symBinAddr: 0x100006CDC, symSize: 0x14 }
  - { offset: 0x21A96, size: 0x8, addend: 0x0, symName: __ZNSt5dequeISt13unordered_mapINSt7__cxx1112basic_stringIcSt11char_traitsIcESaIcEEES6_St4hashIS6_ESt8equal_toIS6_ESaISt4pairIKS6_S6_EEESaISF_EE17_M_reallocate_mapEmb, symObjAddr: 0x4538, symBinAddr: 0x100006A98, symSize: 0x244 }
  - { offset: 0x21B47, size: 0x8, addend: 0x0, symName: __ZNSt5dequeISt13unordered_mapINSt7__cxx1112basic_stringIcSt11char_traitsIcESaIcEEES6_St4hashIS6_ESt8equal_toIS6_ESaISt4pairIKS6_S6_EEESaISF_EE11_S_max_sizeERKSG_, symObjAddr: 0x44DC, symBinAddr: 0x100006A3C, symSize: 0x5C }
  - { offset: 0x21C88, size: 0x8, addend: 0x0, symName: __ZSt12__to_addressINSt8__detail10_Hash_nodeISt4pairIKNSt7__cxx1112basic_stringIcSt11char_traitsIcESaIcEEES8_ELb1EEEEPT_SD_, symObjAddr: 0x44C8, symBinAddr: 0x100006A28, symSize: 0x14 }
  - { offset: 0x21D09, size: 0x8, addend: 0x0, symName: __ZNSt10_Head_baseILm0ERKNSt7__cxx1112basic_stringIcSt11char_traitsIcESaIcEEELb0EEC2ES7_, symObjAddr: 0x44A4, symBinAddr: 0x100006A04, symSize: 0x24 }
  - { offset: 0x21D38, size: 0x8, addend: 0x0, symName: __ZN9__gnu_cxx16__aligned_bufferISt4pairIKNSt7__cxx1112basic_stringIcSt11char_traitsIcESaIcEEES7_EE6_M_ptrEv, symObjAddr: 0x4488, symBinAddr: 0x1000069E8, symSize: 0x1C }
  - { offset: 0x21D62, size: 0x8, addend: 0x0, symName: __ZNKSt8__detail15_Hashtable_baseINSt7__cxx1112basic_stringIcSt11char_traitsIcESaIcEEESt4pairIKS6_S6_ENS_10_Select1stESt8equal_toIS6_ESt4hashIS6_ENS_18_Mod_range_hashingENS_20_Default_ranged_hashENS_17_Hashtable_traitsILb1ELb0ELb1EEEE9_M_equalsERS8_mRKNS_16_Hash_node_valueIS9_Lb1EEE, symObjAddr: 0x4420, symBinAddr: 0x100006980, symSize: 0x68 }
  - { offset: 0x21DBF, size: 0x8, addend: 0x0, symName: __ZNKSt8__detail21_Hashtable_ebo_helperILi1ESt4hashINSt7__cxx1112basic_stringIcSt11char_traitsIcESaIcEEEELb1EE7_M_cgetEv, symObjAddr: 0x440C, symBinAddr: 0x10000696C, symSize: 0x14 }
  - { offset: 0x21DE5, size: 0x8, addend: 0x0, symName: __ZSteqIcSt11char_traitsIcESaIcEEbRKNSt7__cxx1112basic_stringIT_T0_T1_EESA_, symObjAddr: 0x438C, symBinAddr: 0x1000068EC, symSize: 0x80 }
  - { offset: 0x21E55, size: 0x8, addend: 0x0, symName: __ZNKSt8__detail21_Hashtable_ebo_helperILi0ESt8equal_toINSt7__cxx1112basic_stringIcSt11char_traitsIcESaIcEEEELb1EE7_M_cgetEv, symObjAddr: 0x4378, symBinAddr: 0x1000068D8, symSize: 0x14 }
  - { offset: 0x21E7B, size: 0x8, addend: 0x0, symName: __ZSt8_DestroyIPSt13unordered_mapINSt7__cxx1112basic_stringIcSt11char_traitsIcESaIcEEES6_St4hashIS6_ESt8equal_toIS6_ESaISt4pairIKS6_S6_EEEEvT_SH_, symObjAddr: 0x4350, symBinAddr: 0x1000068B0, symSize: 0x28 }
  - { offset: 0x21EC1, size: 0x8, addend: 0x0, symName: __ZNSt15__new_allocatorIPSt13unordered_mapINSt7__cxx1112basic_stringIcSt11char_traitsIcESaIcEEES6_St4hashIS6_ESt8equal_toIS6_ESaISt4pairIKS6_S6_EEEE10deallocateEPSG_m, symObjAddr: 0x4320, symBinAddr: 0x100006880, symSize: 0x30 }
  - { offset: 0x21F2F, size: 0x8, addend: 0x0, symName: __ZNSt15__new_allocatorIPSt13unordered_mapINSt7__cxx1112basic_stringIcSt11char_traitsIcESaIcEEES6_St4hashIS6_ESt8equal_toIS6_ESaISt4pairIKS6_S6_EEEED2Ev, symObjAddr: 0x430C, symBinAddr: 0x10000686C, symSize: 0x14 }
  - { offset: 0x21F79, size: 0x8, addend: 0x0, symName: __ZNKSt11_Deque_baseISt13unordered_mapINSt7__cxx1112basic_stringIcSt11char_traitsIcESaIcEEES6_St4hashIS6_ESt8equal_toIS6_ESaISt4pairIKS6_S6_EEESaISF_EE19_M_get_Tp_allocatorEv, symObjAddr: 0x42F8, symBinAddr: 0x100006858, symSize: 0x14 }
  - { offset: 0x22013, size: 0x8, addend: 0x0, symName: __ZNSt15_Deque_iteratorISt13unordered_mapINSt7__cxx1112basic_stringIcSt11char_traitsIcESaIcEEES6_St4hashIS6_ESt8equal_toIS6_ESaISt4pairIKS6_S6_EEERSF_PSF_EC1Ev, symObjAddr: 0x42C4, symBinAddr: 0x100006824, symSize: 0x34 }
  - { offset: 0x220C1, size: 0x8, addend: 0x0, symName: __ZNSt19__ptr_traits_ptr_toIPPNSt8__detail15_Hash_node_baseES2_Lb0EE10pointer_toERS2_, symObjAddr: 0x42A8, symBinAddr: 0x100006808, symSize: 0x1C }
  - { offset: 0x220F9, size: 0x8, addend: 0x0, symName: __ZNKSt8__detail17_ReuseOrAllocNodeISaINS_10_Hash_nodeISt4pairIKNSt7__cxx1112basic_stringIcSt11char_traitsIcESaIcEEES8_ELb1EEEEEclIJRKSA_EEEPSB_DpOT_, symObjAddr: 0x40E0, symBinAddr: 0x100006640, symSize: 0x1C8 }
  - { offset: 0x22274, size: 0x8, addend: 0x0, symName: __ZSt11__addressofINSt8__detail20_Prime_rehash_policyEEPT_RS2_, symObjAddr: 0x40CC, symBinAddr: 0x10000662C, symSize: 0x14 }
  - { offset: 0x222AA, size: 0x8, addend: 0x0, symName: __ZNSt8__detail16_Hashtable_allocISaINS_10_Hash_nodeISt4pairIKNSt7__cxx1112basic_stringIcSt11char_traitsIcESaIcEEES8_ELb1EEEEE22_M_deallocate_node_ptrEPSB_, symObjAddr: 0x4074, symBinAddr: 0x1000065D4, symSize: 0x58 }
  - { offset: 0x22385, size: 0x8, addend: 0x0, symName: __ZNKSt8__detail15_Hash_code_baseINSt7__cxx1112basic_stringIcSt11char_traitsIcESaIcEEESt4pairIKS6_S6_ENS_10_Select1stESt4hashIS6_ENS_18_Mod_range_hashingENS_20_Default_ranged_hashELb1EE15_M_bucket_indexERKNS_16_Hash_node_valueIS9_Lb1EEEm, symObjAddr: 0x4044, symBinAddr: 0x1000065A4, symSize: 0x30 }
  - { offset: 0x223D1, size: 0x8, addend: 0x0, symName: __ZNSt10_HashtableINSt7__cxx1112basic_stringIcSt11char_traitsIcESaIcEEESt4pairIKS5_S5_ESaIS8_ENSt8__detail10_Select1stESt8equal_toIS5_ESt4hashIS5_ENSA_18_Mod_range_hashingENSA_20_Default_ranged_hashENSA_20_Prime_rehash_policyENSA_17_Hashtable_traitsILb1ELb0ELb1EEEE16_M_update_bbeginEv, symObjAddr: 0x3FDC, symBinAddr: 0x10000653C, symSize: 0x68 }
  - { offset: 0x2241F, size: 0x8, addend: 0x0, symName: __ZNSt8__detail16_Hashtable_allocISaINS_10_Hash_nodeISt4pairIKNSt7__cxx1112basic_stringIcSt11char_traitsIcESaIcEEES8_ELb1EEEEE16_M_allocate_nodeIJRKSA_EEEPSB_DpOT_, symObjAddr: 0x3E68, symBinAddr: 0x1000063C8, symSize: 0x174 }
  - { offset: 0x2258E, size: 0x8, addend: 0x0, symName: __ZSt7forwardIRKSt4pairIKNSt7__cxx1112basic_stringIcSt11char_traitsIcESaIcEEES6_EEOT_RNSt16remove_referenceISB_E4typeE, symObjAddr: 0x3E54, symBinAddr: 0x1000063B4, symSize: 0x14 }
  - { offset: 0x225C7, size: 0x8, addend: 0x0, symName: __ZSt4moveIRSt4pairIKNSt7__cxx1112basic_stringIcSt11char_traitsIcESaIcEEES6_EEONSt16remove_referenceIT_E4typeEOSB_, symObjAddr: 0x3E40, symBinAddr: 0x1000063A0, symSize: 0x14 }
  - { offset: 0x225FD, size: 0x8, addend: 0x0, symName: __ZNSt8__detail16_Hashtable_allocISaINS_10_Hash_nodeISt4pairIKNSt7__cxx1112basic_stringIcSt11char_traitsIcESaIcEEES8_ELb1EEEEE19_M_allocate_bucketsEm, symObjAddr: 0x3D90, symBinAddr: 0x1000062F0, symSize: 0xB0 }
  - { offset: 0x22747, size: 0x8, addend: 0x0, symName: __ZNSt11_Deque_baseISt13unordered_mapINSt7__cxx1112basic_stringIcSt11char_traitsIcESaIcEEES6_St4hashIS6_ESt8equal_toIS6_ESaISt4pairIKS6_S6_EEESaISF_EE16_M_allocate_nodeEv, symObjAddr: 0x3D4C, symBinAddr: 0x1000062AC, symSize: 0x44 }
  - { offset: 0x2279E, size: 0x8, addend: 0x0, symName: __ZNSt5dequeISt13unordered_mapINSt7__cxx1112basic_stringIcSt11char_traitsIcESaIcEEES6_St4hashIS6_ESt8equal_toIS6_ESaISt4pairIKS6_S6_EEESaISF_EE22_M_reserve_map_at_backEm, symObjAddr: 0x3CEC, symBinAddr: 0x10000624C, symSize: 0x60 }
  - { offset: 0x227D9, size: 0x8, addend: 0x0, symName: __ZNKSt5dequeISt13unordered_mapINSt7__cxx1112basic_stringIcSt11char_traitsIcESaIcEEES6_St4hashIS6_ESt8equal_toIS6_ESaISt4pairIKS6_S6_EEESaISF_EE8max_sizeEv, symObjAddr: 0x3CCC, symBinAddr: 0x10000622C, symSize: 0x20 }
  - { offset: 0x22848, size: 0x8, addend: 0x0, symName: __ZSt7forwardIRKSt13unordered_mapINSt7__cxx1112basic_stringIcSt11char_traitsIcESaIcEEES6_St4hashIS6_ESt8equal_toIS6_ESaISt4pairIKS6_S6_EEEEOT_RNSt16remove_referenceISI_E4typeE, symObjAddr: 0x3CB8, symBinAddr: 0x100006218, symSize: 0x14 }
  - { offset: 0x2287A, size: 0x8, addend: 0x0, symName: __ZNSt15_Deque_iteratorISt13unordered_mapINSt7__cxx1112basic_stringIcSt11char_traitsIcESaIcEEES6_St4hashIS6_ESt8equal_toIS6_ESaISt4pairIKS6_S6_EEERSF_PSF_E14_S_buffer_sizeEv, symObjAddr: 0x3CA0, symBinAddr: 0x100006200, symSize: 0x18 }
  - { offset: 0x22896, size: 0x8, addend: 0x0, symName: __ZNSt10_HashtableINSt7__cxx1112basic_stringIcSt11char_traitsIcESaIcEEESt4pairIKS5_S5_ESaIS8_ENSt8__detail10_Select1stESt8equal_toIS5_ESt4hashIS5_ENSA_18_Mod_range_hashingENSA_20_Default_ranged_hashENSA_20_Prime_rehash_policyENSA_17_Hashtable_traitsILb1ELb0ELb1EEEE22_M_insert_bucket_beginEmPNSA_10_Hash_nodeIS8_Lb1EEE, symObjAddr: 0x3B94, symBinAddr: 0x1000060F4, symSize: 0x10C }
  - { offset: 0x228E2, size: 0x8, addend: 0x0, symName: __ZNKSt8__detail15_Hash_code_baseINSt7__cxx1112basic_stringIcSt11char_traitsIcESaIcEEESt4pairIKS6_S6_ENS_10_Select1stESt4hashIS6_ENS_18_Mod_range_hashingENS_20_Default_ranged_hashELb1EE13_M_store_codeERNS_21_Hash_node_code_cacheILb1EEEm, symObjAddr: 0x3B6C, symBinAddr: 0x1000060CC, symSize: 0x28 }
  - { offset: 0x2292E, size: 0x8, addend: 0x0, symName: __ZNSt10_HashtableINSt7__cxx1112basic_stringIcSt11char_traitsIcESaIcEEESt4pairIKS5_S5_ESaIS8_ENSt8__detail10_Select1stESt8equal_toIS5_ESt4hashIS5_ENSA_18_Mod_range_hashingENSA_20_Default_ranged_hashENSA_20_Prime_rehash_policyENSA_17_Hashtable_traitsILb1ELb0ELb1EEEE9_M_rehashEmSt17integral_constantIbLb1EE, symObjAddr: 0x3A00, symBinAddr: 0x100005F60, symSize: 0x16C }
  - { offset: 0x229DB, size: 0x8, addend: 0x0, symName: __ZNSt8__detail16_Hashtable_allocISaINS_10_Hash_nodeISt4pairIKNSt7__cxx1112basic_stringIcSt11char_traitsIcESaIcEEES8_ELb1EEEEE16_M_allocate_nodeIJRKSt21piecewise_construct_tSt5tupleIJRS9_EESI_IJEEEEEPSB_DpOT_, symObjAddr: 0x3814, symBinAddr: 0x100005D74, symSize: 0x1EC }
  - { offset: 0x22BAB, size: 0x8, addend: 0x0, symName: __ZNSt8__detail10_Hash_nodeISt4pairIKNSt7__cxx1112basic_stringIcSt11char_traitsIcESaIcEEES7_ELb1EEC1Ev, symObjAddr: 0x37F4, symBinAddr: 0x100005D54, symSize: 0x20 }
  - { offset: 0x22BD4, size: 0x8, addend: 0x0, symName: __ZSt7forwardISt5tupleIJEEEOT_RNSt16remove_referenceIS2_E4typeE, symObjAddr: 0x37E0, symBinAddr: 0x100005D40, symSize: 0x14 }
  - { offset: 0x22C0D, size: 0x8, addend: 0x0, symName: __ZSt7forwardISt5tupleIJRKNSt7__cxx1112basic_stringIcSt11char_traitsIcESaIcEEEEEEOT_RNSt16remove_referenceISA_E4typeE, symObjAddr: 0x37CC, symBinAddr: 0x100005D2C, symSize: 0x14 }
  - { offset: 0x22C46, size: 0x8, addend: 0x0, symName: __ZSt7forwardIRKSt21piecewise_construct_tEOT_RNSt16remove_referenceIS3_E4typeE, symObjAddr: 0x37B8, symBinAddr: 0x100005D18, symSize: 0x14 }
  - { offset: 0x22CA4, size: 0x8, addend: 0x0, symName: __ZNSt11_Tuple_implILm0EJRKNSt7__cxx1112basic_stringIcSt11char_traitsIcESaIcEEEEEC2ES7_, symObjAddr: 0x3790, symBinAddr: 0x100005CF0, symSize: 0x28 }
  - { offset: 0x22CE9, size: 0x8, addend: 0x0, symName: __ZNKSt10_HashtableINSt7__cxx1112basic_stringIcSt11char_traitsIcESaIcEEESt4pairIKS5_S5_ESaIS8_ENSt8__detail10_Select1stESt8equal_toIS5_ESt4hashIS5_ENSA_18_Mod_range_hashingENSA_20_Default_ranged_hashENSA_20_Prime_rehash_policyENSA_17_Hashtable_traitsILb1ELb0ELb1EEEE19_M_find_before_nodeEmRS7_m, symObjAddr: 0x3694, symBinAddr: 0x100005BF4, symSize: 0xFC }
  - { offset: 0x22D7B, size: 0x8, addend: 0x0, symName: __ZNKSt8__detail15_Hash_code_baseINSt7__cxx1112basic_stringIcSt11char_traitsIcESaIcEEESt4pairIKS6_S6_ENS_10_Select1stESt4hashIS6_ENS_18_Mod_range_hashingENS_20_Default_ranged_hashELb1EE15_M_bucket_indexEmm, symObjAddr: 0x3668, symBinAddr: 0x100005BC8, symSize: 0x2C }
  - { offset: 0x22DC7, size: 0x8, addend: 0x0, symName: __ZNKSt15__str_hash_baseIcSaIcENSt7__cxx1112basic_stringIcSt11char_traitsIcES0_EEEclERKS5_, symObjAddr: 0x3620, symBinAddr: 0x100005B80, symSize: 0x48 }
  - { offset: 0x22E02, size: 0x8, addend: 0x0, symName: __ZNKSt8__detail15_Hash_code_baseINSt7__cxx1112basic_stringIcSt11char_traitsIcESaIcEEESt4pairIKS6_S6_ENS_10_Select1stESt4hashIS6_ENS_18_Mod_range_hashingENS_20_Default_ranged_hashELb1EE7_M_hashEv, symObjAddr: 0x3604, symBinAddr: 0x100005B64, symSize: 0x1C }
  - { offset: 0x22E54, size: 0x8, addend: 0x0, symName: __ZNSt8__detail19_Node_iterator_baseISt4pairIKNSt7__cxx1112basic_stringIcSt11char_traitsIcESaIcEEES7_ELb1EEC2EPNS_10_Hash_nodeIS9_Lb1EEE, symObjAddr: 0x35E0, symBinAddr: 0x100005B40, symSize: 0x24 }
  - { offset: 0x22E83, size: 0x8, addend: 0x0, symName: __ZNKSt8equal_toINSt7__cxx1112basic_stringIcSt11char_traitsIcESaIcEEEEclERKS5_S8_, symObjAddr: 0x35B8, symBinAddr: 0x100005B18, symSize: 0x28 }
  - { offset: 0x22EDA, size: 0x8, addend: 0x0, symName: __ZNKSt8__detail10_Select1stclIRKSt4pairIKNSt7__cxx1112basic_stringIcSt11char_traitsIcESaIcEEES8_EEEONS0_10__1st_typeIT_E4typeEOSE_, symObjAddr: 0x3598, symBinAddr: 0x100005AF8, symSize: 0x20 }
  - { offset: 0x22F33, size: 0x8, addend: 0x0, symName: __ZNKSt8__detail15_Hashtable_baseINSt7__cxx1112basic_stringIcSt11char_traitsIcESaIcEEESt4pairIKS6_S6_ENS_10_Select1stESt8equal_toIS6_ESt4hashIS6_ENS_18_Mod_range_hashingENS_20_Default_ranged_hashENS_17_Hashtable_traitsILb1ELb0ELb1EEEE5_M_eqEv, symObjAddr: 0x357C, symBinAddr: 0x100005ADC, symSize: 0x1C }
  - { offset: 0x22F59, size: 0x8, addend: 0x0, symName: __ZNSt8__detail22_Hashtable_hash_traitsISt4hashINSt7__cxx1112basic_stringIcSt11char_traitsIcESaIcEEEEE22__small_size_thresholdEv, symObjAddr: 0x3574, symBinAddr: 0x100005AD4, symSize: 0x8 }
  - { offset: 0x22FAC, size: 0x8, addend: 0x0, symName: __ZNSt5dequeISt13unordered_mapINSt7__cxx1112basic_stringIcSt11char_traitsIcESaIcEEES6_St4hashIS6_ESt8equal_toIS6_ESaISt4pairIKS6_S6_EEESaISF_EE14_S_buffer_sizeEv, symObjAddr: 0x355C, symBinAddr: 0x100005ABC, symSize: 0x18 }
  - { offset: 0x2301A, size: 0x8, addend: 0x0, symName: __ZNKSt11_Deque_baseISt13unordered_mapINSt7__cxx1112basic_stringIcSt11char_traitsIcESaIcEEES6_St4hashIS6_ESt8equal_toIS6_ESaISt4pairIKS6_S6_EEESaISF_EE20_M_get_map_allocatorEv, symObjAddr: 0x3514, symBinAddr: 0x100005A74, symSize: 0x48 }
  - { offset: 0x23094, size: 0x8, addend: 0x0, symName: __ZNSt11_Deque_baseISt13unordered_mapINSt7__cxx1112basic_stringIcSt11char_traitsIcESaIcEEES6_St4hashIS6_ESt8equal_toIS6_ESaISt4pairIKS6_S6_EEESaISF_EE18_M_deallocate_nodeEPSF_, symObjAddr: 0x34BC, symBinAddr: 0x100005A1C, symSize: 0x58 }
  - { offset: 0x23105, size: 0x8, addend: 0x0, symName: __ZNSt15_Deque_iteratorISt13unordered_mapINSt7__cxx1112basic_stringIcSt11char_traitsIcESaIcEEES6_St4hashIS6_ESt8equal_toIS6_ESaISt4pairIKS6_S6_EEERSF_PSF_E11_M_set_nodeEPSH_, symObjAddr: 0x3450, symBinAddr: 0x1000059B0, symSize: 0x6C }
  - { offset: 0x23140, size: 0x8, addend: 0x0, symName: __ZNSt11_Deque_baseISt13unordered_mapINSt7__cxx1112basic_stringIcSt11char_traitsIcESaIcEEES6_St4hashIS6_ESt8equal_toIS6_ESaISt4pairIKS6_S6_EEESaISF_EE15_M_create_nodesEPPSF_SJ_, symObjAddr: 0x33C4, symBinAddr: 0x100005924, symSize: 0x8C }
  - { offset: 0x2319D, size: 0x8, addend: 0x0, symName: __ZNSt11_Deque_baseISt13unordered_mapINSt7__cxx1112basic_stringIcSt11char_traitsIcESaIcEEES6_St4hashIS6_ESt8equal_toIS6_ESaISt4pairIKS6_S6_EEESaISF_EE15_M_allocate_mapEm, symObjAddr: 0x3344, symBinAddr: 0x1000058A4, symSize: 0x80 }
  - { offset: 0x23279, size: 0x8, addend: 0x0, symName: __ZNSt15__new_allocatorISt13unordered_mapINSt7__cxx1112basic_stringIcSt11char_traitsIcESaIcEEES6_St4hashIS6_ESt8equal_toIS6_ESaISt4pairIKS6_S6_EEEED2Ev, symObjAddr: 0x3330, symBinAddr: 0x100005890, symSize: 0x14 }
  - { offset: 0x232B9, size: 0x8, addend: 0x0, symName: __ZNSt11_Deque_baseISt13unordered_mapINSt7__cxx1112basic_stringIcSt11char_traitsIcESaIcEEES6_St4hashIS6_ESt8equal_toIS6_ESaISt4pairIKS6_S6_EEESaISF_EE16_Deque_impl_dataC2Ev, symObjAddr: 0x32F0, symBinAddr: 0x100005850, symSize: 0x40 }
  - { offset: 0x232F5, size: 0x8, addend: 0x0, symName: __ZNSt8__detail16_Hashtable_allocISaINS_10_Hash_nodeISt4pairIKNSt7__cxx1112basic_stringIcSt11char_traitsIcESaIcEEES8_ELb1EEEEE21_M_deallocate_bucketsEPPNS_15_Hash_node_baseEm, symObjAddr: 0x3278, symBinAddr: 0x1000057D8, symSize: 0x78 }
  - { offset: 0x23405, size: 0x8, addend: 0x0, symName: __ZNKSt10_HashtableINSt7__cxx1112basic_stringIcSt11char_traitsIcESaIcEEESt4pairIKS5_S5_ESaIS8_ENSt8__detail10_Select1stESt8equal_toIS5_ESt4hashIS5_ENSA_18_Mod_range_hashingENSA_20_Default_ranged_hashENSA_20_Prime_rehash_policyENSA_17_Hashtable_traitsILb1ELb0ELb1EEEE21_M_uses_single_bucketEPPNSA_15_Hash_node_baseE, symObjAddr: 0x323C, symBinAddr: 0x10000579C, symSize: 0x3C }
  - { offset: 0x23470, size: 0x8, addend: 0x0, symName: __ZNSt10_HashtableINSt7__cxx1112basic_stringIcSt11char_traitsIcESaIcEEESt4pairIKS5_S5_ESaIS8_ENSt8__detail10_Select1stESt8equal_toIS5_ESt4hashIS5_ENSA_18_Mod_range_hashingENSA_20_Default_ranged_hashENSA_20_Prime_rehash_policyENSA_17_Hashtable_traitsILb1ELb0ELb1EEEE9_M_assignIRKSL_NSA_17_ReuseOrAllocNodeISaINSA_10_Hash_nodeIS8_Lb1EEEEEEEEvOT_RKT0_, symObjAddr: 0x303C, symBinAddr: 0x10000559C, symSize: 0x200 }
  - { offset: 0x235F5, size: 0x8, addend: 0x0, symName: __ZNSt8__detail17_ReuseOrAllocNodeISaINS_10_Hash_nodeISt4pairIKNSt7__cxx1112basic_stringIcSt11char_traitsIcESaIcEEES8_ELb1EEEEED1Ev, symObjAddr: 0x3008, symBinAddr: 0x100005568, symSize: 0x34 }
  - { offset: 0x2364F, size: 0x8, addend: 0x0, symName: __ZNSt8__detail17_ReuseOrAllocNodeISaINS_10_Hash_nodeISt4pairIKNSt7__cxx1112basic_stringIcSt11char_traitsIcESaIcEEES8_ELb1EEEEEC1EPSB_RNS_16_Hashtable_allocISC_EE, symObjAddr: 0x2FD4, symBinAddr: 0x100005534, symSize: 0x34 }
  - { offset: 0x2368A, size: 0x8, addend: 0x0, symName: __ZSt7forwardIRKSt10_HashtableINSt7__cxx1112basic_stringIcSt11char_traitsIcESaIcEEESt4pairIKS6_S6_ESaIS9_ENSt8__detail10_Select1stESt8equal_toIS6_ESt4hashIS6_ENSB_18_Mod_range_hashingENSB_20_Default_ranged_hashENSB_20_Prime_rehash_policyENSB_17_Hashtable_traitsILb1ELb0ELb1EEEEEOT_RNSt16remove_referenceISP_E4typeE, symObjAddr: 0x2FC0, symBinAddr: 0x100005520, symSize: 0x14 }
  - { offset: 0x236E4, size: 0x8, addend: 0x0, symName: __ZNSt8__detail17_RehashStateGuardINS_20_Prime_rehash_policyEED1Ev, symObjAddr: 0x2F7C, symBinAddr: 0x1000054DC, symSize: 0x44 }
  - { offset: 0x23732, size: 0x8, addend: 0x0, symName: __ZNSt8__detail17_RehashStateGuardINS_20_Prime_rehash_policyEEC1ERS1_, symObjAddr: 0x2F38, symBinAddr: 0x100005498, symSize: 0x44 }
  - { offset: 0x23761, size: 0x8, addend: 0x0, symName: __ZNSt8__detail16_Hashtable_allocISaINS_10_Hash_nodeISt4pairIKNSt7__cxx1112basic_stringIcSt11char_traitsIcESaIcEEES8_ELb1EEEEE18_M_deallocate_nodeEPSB_, symObjAddr: 0x2EBC, symBinAddr: 0x10000541C, symSize: 0x7C }
  - { offset: 0x2381A, size: 0x8, addend: 0x0, symName: __ZNSt8__detail21_Hashtable_ebo_helperILi0ESaINS_10_Hash_nodeISt4pairIKNSt7__cxx1112basic_stringIcSt11char_traitsIcESaIcEEES8_ELb1EEEELb1EE6_M_getEv, symObjAddr: 0x2EA8, symBinAddr: 0x100005408, symSize: 0x14 }
  - { offset: 0x23844, size: 0x8, addend: 0x0, symName: __ZNSt5dequeISt13unordered_mapINSt7__cxx1112basic_stringIcSt11char_traitsIcESaIcEEES6_St4hashIS6_ESt8equal_toIS6_ESaISt4pairIKS6_S6_EEESaISF_EE15_M_pop_back_auxEv, symObjAddr: 0x2E08, symBinAddr: 0x100005368, symSize: 0xA0 }
  - { offset: 0x238F5, size: 0x8, addend: 0x0, symName: __ZNKSt10_HashtableINSt7__cxx1112basic_stringIcSt11char_traitsIcESaIcEEESt4pairIKS5_S5_ESaIS8_ENSt8__detail10_Select1stESt8equal_toIS5_ESt4hashIS5_ENSA_18_Mod_range_hashingENSA_20_Default_ranged_hashENSA_20_Prime_rehash_policyENSA_17_Hashtable_traitsILb1ELb0ELb1EEEE15_M_bucket_indexERKNSA_16_Hash_node_valueIS8_Lb1EEE, symObjAddr: 0x2DD8, symBinAddr: 0x100005338, symSize: 0x30 }
  - { offset: 0x23930, size: 0x8, addend: 0x0, symName: __ZNSt10_HashtableINSt7__cxx1112basic_stringIcSt11char_traitsIcESaIcEEESt4pairIKS5_S5_ESaIS8_ENSt8__detail10_Select1stESt8equal_toIS5_ESt4hashIS5_ENSA_18_Mod_range_hashingENSA_20_Default_ranged_hashENSA_20_Prime_rehash_policyENSA_17_Hashtable_traitsILb1ELb0ELb1EEEE16_M_update_bbeginEPNSA_10_Hash_nodeIS8_Lb1EEE, symObjAddr: 0x2DA8, symBinAddr: 0x100005308, symSize: 0x30 }
  - { offset: 0x2396B, size: 0x8, addend: 0x0, symName: __ZNKSt8__detail15_Hash_code_baseINSt7__cxx1112basic_stringIcSt11char_traitsIcESaIcEEESt4pairIKS6_S6_ENS_10_Select1stESt4hashIS6_ENS_18_Mod_range_hashingENS_20_Default_ranged_hashELb1EE12_M_copy_codeERNS_21_Hash_node_code_cacheILb1EEERKSH_, symObjAddr: 0x2D7C, symBinAddr: 0x1000052DC, symSize: 0x2C }
  - { offset: 0x239C2, size: 0x8, addend: 0x0, symName: __ZNKSt8__detail10_AllocNodeISaINS_10_Hash_nodeISt4pairIKNSt7__cxx1112basic_stringIcSt11char_traitsIcESaIcEEES8_ELb1EEEEEclIJRKSA_EEEPSB_DpOT_, symObjAddr: 0x2D40, symBinAddr: 0x1000052A0, symSize: 0x3C }
  - { offset: 0x23A02, size: 0x8, addend: 0x0, symName: __ZNSt10_HashtableINSt7__cxx1112basic_stringIcSt11char_traitsIcESaIcEEESt4pairIKS5_S5_ESaIS8_ENSt8__detail10_Select1stESt8equal_toIS5_ESt4hashIS5_ENSA_18_Mod_range_hashingENSA_20_Default_ranged_hashENSA_20_Prime_rehash_policyENSA_17_Hashtable_traitsILb1ELb0ELb1EEEE15__fwd_value_forIRKSL_EENSt13__conditionalIXsrSt19is_lvalue_referenceIT_E5valueEE4typeIRKS8_OS8_EERS8_, symObjAddr: 0x2D24, symBinAddr: 0x100005284, symSize: 0x1C }
  - { offset: 0x23A39, size: 0x8, addend: 0x0, symName: __ZNSt10_HashtableINSt7__cxx1112basic_stringIcSt11char_traitsIcESaIcEEESt4pairIKS5_S5_ESaIS8_ENSt8__detail10_Select1stESt8equal_toIS5_ESt4hashIS5_ENSA_18_Mod_range_hashingENSA_20_Default_ranged_hashENSA_20_Prime_rehash_policyENSA_17_Hashtable_traitsILb1ELb0ELb1EEEE19_M_allocate_bucketsEm, symObjAddr: 0x2CCC, symBinAddr: 0x10000522C, symSize: 0x58 }
  - { offset: 0x23AAC, size: 0x8, addend: 0x0, symName: __ZNSt8__detail21_Hashtable_ebo_helperILi0ESaINS_10_Hash_nodeISt4pairIKNSt7__cxx1112basic_stringIcSt11char_traitsIcESaIcEEES8_ELb1EEEELb1EEC2ISC_EEOT_, symObjAddr: 0x2C80, symBinAddr: 0x1000051E0, symSize: 0x4C }
  - { offset: 0x23B40, size: 0x8, addend: 0x0, symName: __ZSt7forwardISaINSt8__detail10_Hash_nodeISt4pairIKNSt7__cxx1112basic_stringIcSt11char_traitsIcESaIcEEES8_ELb1EEEEEOT_RNSt16remove_referenceISD_E4typeE, symObjAddr: 0x2C6C, symBinAddr: 0x1000051CC, symSize: 0x14 }
  - { offset: 0x23B8C, size: 0x8, addend: 0x0, symName: __ZNKSt8__detail21_Hashtable_ebo_helperILi0ESaINS_10_Hash_nodeISt4pairIKNSt7__cxx1112basic_stringIcSt11char_traitsIcESaIcEEES8_ELb1EEEELb1EE7_M_cgetEv, symObjAddr: 0x2C58, symBinAddr: 0x1000051B8, symSize: 0x14 }
  - { offset: 0x23BB6, size: 0x8, addend: 0x0, symName: __ZNKSt15_Deque_iteratorISt13unordered_mapINSt7__cxx1112basic_stringIcSt11char_traitsIcESaIcEEES6_St4hashIS6_ESt8equal_toIS6_ESaISt4pairIKS6_S6_EEERSF_PSF_EdeEv, symObjAddr: 0x2C40, symBinAddr: 0x1000051A0, symSize: 0x18 }
  - { offset: 0x23BE0, size: 0x8, addend: 0x0, symName: __ZNSt15_Deque_iteratorISt13unordered_mapINSt7__cxx1112basic_stringIcSt11char_traitsIcESaIcEEES6_St4hashIS6_ESt8equal_toIS6_ESaISt4pairIKS6_S6_EEERSF_PSF_EmmEv, symObjAddr: 0x2BD4, symBinAddr: 0x100005134, symSize: 0x6C }
  - { offset: 0x23C0A, size: 0x8, addend: 0x0, symName: __ZNSt5dequeISt13unordered_mapINSt7__cxx1112basic_stringIcSt11char_traitsIcESaIcEEES6_St4hashIS6_ESt8equal_toIS6_ESaISt4pairIKS6_S6_EEESaISF_EE16_M_push_back_auxIJRKSF_EEEvDpOT_, symObjAddr: 0x2A4C, symBinAddr: 0x100004FAC, symSize: 0x188 }
  - { offset: 0x23CFA, size: 0x8, addend: 0x0, symName: __ZStmiRKSt15_Deque_iteratorISt13unordered_mapINSt7__cxx1112basic_stringIcSt11char_traitsIcESaIcEEES6_St4hashIS6_ESt8equal_toIS6_ESaISt4pairIKS6_S6_EEERSF_PSF_ESK_, symObjAddr: 0x2990, symBinAddr: 0x100004EF0, symSize: 0xBC }
  - { offset: 0x23D39, size: 0x8, addend: 0x0, symName: __ZNKSt8__detail14_Node_iteratorISt4pairIKNSt7__cxx1112basic_stringIcSt11char_traitsIcESaIcEEES7_ELb0ELb1EEptEv, symObjAddr: 0x2960, symBinAddr: 0x100004EC0, symSize: 0x30 }
  - { offset: 0x23D87, size: 0x8, addend: 0x0, symName: __ZNSt10_HashtableINSt7__cxx1112basic_stringIcSt11char_traitsIcESaIcEEESt4pairIKS5_S5_ESaIS8_ENSt8__detail10_Select1stESt8equal_toIS5_ESt4hashIS5_ENSA_18_Mod_range_hashingENSA_20_Default_ranged_hashENSA_20_Prime_rehash_policyENSA_17_Hashtable_traitsILb1ELb0ELb1EEEE21_M_insert_unique_nodeEmmPNSA_10_Hash_nodeIS8_Lb1EEEm, symObjAddr: 0x2850, symBinAddr: 0x100004DB0, symSize: 0x110 }
  - { offset: 0x23E3E, size: 0x8, addend: 0x0, symName: __ZNSt10_HashtableINSt7__cxx1112basic_stringIcSt11char_traitsIcESaIcEEESt4pairIKS5_S5_ESaIS8_ENSt8__detail10_Select1stESt8equal_toIS5_ESt4hashIS5_ENSA_18_Mod_range_hashingENSA_20_Default_ranged_hashENSA_20_Prime_rehash_policyENSA_17_Hashtable_traitsILb1ELb0ELb1EEEE12_Scoped_nodeD1Ev, symObjAddr: 0x280C, symBinAddr: 0x100004D6C, symSize: 0x44 }
  - { offset: 0x23EB7, size: 0x8, addend: 0x0, symName: __ZNSt10_HashtableINSt7__cxx1112basic_stringIcSt11char_traitsIcESaIcEEESt4pairIKS5_S5_ESaIS8_ENSt8__detail10_Select1stESt8equal_toIS5_ESt4hashIS5_ENSA_18_Mod_range_hashingENSA_20_Default_ranged_hashENSA_20_Prime_rehash_policyENSA_17_Hashtable_traitsILb1ELb0ELb1EEEE12_Scoped_nodeC1IJRKSt21piecewise_construct_tSt5tupleIJRS7_EESR_IJEEEEEPNSA_16_Hashtable_allocISaINSA_10_Hash_nodeIS8_Lb1EEEEEEDpOT_, symObjAddr: 0x2784, symBinAddr: 0x100004CE4, symSize: 0x88 }
  - { offset: 0x23F4F, size: 0x8, addend: 0x0, symName: __ZNSt5tupleIJRKNSt7__cxx1112basic_stringIcSt11char_traitsIcESaIcEEEEEC1ILb1ELb1EEES7_, symObjAddr: 0x275C, symBinAddr: 0x100004CBC, symSize: 0x28 }
  - { offset: 0x23F9E, size: 0x8, addend: 0x0, symName: __ZNKSt10_HashtableINSt7__cxx1112basic_stringIcSt11char_traitsIcESaIcEEESt4pairIKS5_S5_ESaIS8_ENSt8__detail10_Select1stESt8equal_toIS5_ESt4hashIS5_ENSA_18_Mod_range_hashingENSA_20_Default_ranged_hashENSA_20_Prime_rehash_policyENSA_17_Hashtable_traitsILb1ELb0ELb1EEEE12_M_find_nodeEmRS7_m, symObjAddr: 0x2708, symBinAddr: 0x100004C68, symSize: 0x54 }
  - { offset: 0x2400C, size: 0x8, addend: 0x0, symName: __ZNKSt10_HashtableINSt7__cxx1112basic_stringIcSt11char_traitsIcESaIcEEESt4pairIKS5_S5_ESaIS8_ENSt8__detail10_Select1stESt8equal_toIS5_ESt4hashIS5_ENSA_18_Mod_range_hashingENSA_20_Default_ranged_hashENSA_20_Prime_rehash_policyENSA_17_Hashtable_traitsILb1ELb0ELb1EEEE15_M_bucket_indexEm, symObjAddr: 0x26D8, symBinAddr: 0x100004C38, symSize: 0x30 }
  - { offset: 0x24047, size: 0x8, addend: 0x0, symName: __ZNKSt8__detail15_Hash_code_baseINSt7__cxx1112basic_stringIcSt11char_traitsIcESaIcEEESt4pairIKS6_S6_ENS_10_Select1stESt4hashIS6_ENS_18_Mod_range_hashingENS_20_Default_ranged_hashELb1EE12_M_hash_codeERS8_, symObjAddr: 0x26B0, symBinAddr: 0x100004C10, symSize: 0x28 }
  - { offset: 0x240AA, size: 0x8, addend: 0x0, symName: __ZNSt8__detail14_Node_iteratorISt4pairIKNSt7__cxx1112basic_stringIcSt11char_traitsIcESaIcEEES7_ELb0ELb1EEC1EPNS_10_Hash_nodeIS9_Lb1EEE, symObjAddr: 0x2688, symBinAddr: 0x100004BE8, symSize: 0x28 }
  - { offset: 0x240D9, size: 0x8, addend: 0x0, symName: __ZNKSt8__detail15_Hashtable_baseINSt7__cxx1112basic_stringIcSt11char_traitsIcESaIcEEESt4pairIKS6_S6_ENS_10_Select1stESt8equal_toIS6_ESt4hashIS6_ENS_18_Mod_range_hashingENS_20_Default_ranged_hashENS_17_Hashtable_traitsILb1ELb0ELb1EEEE13_M_key_equalsERS8_RKNS_16_Hash_node_valueIS9_Lb1EEE, symObjAddr: 0x261C, symBinAddr: 0x100004B7C, symSize: 0x6C }
  - { offset: 0x2416D, size: 0x8, addend: 0x0, symName: __ZNKSt8__detail10_Hash_nodeISt4pairIKNSt7__cxx1112basic_stringIcSt11char_traitsIcESaIcEEES7_ELb1EE7_M_nextEv, symObjAddr: 0x2604, symBinAddr: 0x100004B64, symSize: 0x18 }
  - { offset: 0x24193, size: 0x8, addend: 0x0, symName: __ZNSt10_HashtableINSt7__cxx1112basic_stringIcSt11char_traitsIcESaIcEEESt4pairIKS5_S5_ESaIS8_ENSt8__detail10_Select1stESt8equal_toIS5_ESt4hashIS5_ENSA_18_Mod_range_hashingENSA_20_Default_ranged_hashENSA_20_Prime_rehash_policyENSA_17_Hashtable_traitsILb1ELb0ELb1EEEE22__small_size_thresholdEv, symObjAddr: 0x25F0, symBinAddr: 0x100004B50, symSize: 0x14 }
  - { offset: 0x241AF, size: 0x8, addend: 0x0, symName: __ZNKSt10_HashtableINSt7__cxx1112basic_stringIcSt11char_traitsIcESaIcEEESt4pairIKS5_S5_ESaIS8_ENSt8__detail10_Select1stESt8equal_toIS5_ESt4hashIS5_ENSA_18_Mod_range_hashingENSA_20_Default_ranged_hashENSA_20_Prime_rehash_policyENSA_17_Hashtable_traitsILb1ELb0ELb1EEEE4sizeEv, symObjAddr: 0x25D8, symBinAddr: 0x100004B38, symSize: 0x18 }
  - { offset: 0x241D9, size: 0x8, addend: 0x0, symName: __ZNSt5dequeISt13unordered_mapINSt7__cxx1112basic_stringIcSt11char_traitsIcESaIcEEES6_St4hashIS6_ESt8equal_toIS6_ESaISt4pairIKS6_S6_EEESaISF_EE19_M_destroy_data_auxESt15_Deque_iteratorISF_RSF_PSF_ESL_, symObjAddr: 0x2478, symBinAddr: 0x1000049D8, symSize: 0x160 }
  - { offset: 0x24352, size: 0x8, addend: 0x0, symName: __ZNSt15_Deque_iteratorISt13unordered_mapINSt7__cxx1112basic_stringIcSt11char_traitsIcESaIcEEES6_St4hashIS6_ESt8equal_toIS6_ESaISt4pairIKS6_S6_EEERSF_PSF_EC1ERKSI_, symObjAddr: 0x2420, symBinAddr: 0x100004980, symSize: 0x58 }
  - { offset: 0x24381, size: 0x8, addend: 0x0, symName: __ZNSt11_Deque_baseISt13unordered_mapINSt7__cxx1112basic_stringIcSt11char_traitsIcESaIcEEES6_St4hashIS6_ESt8equal_toIS6_ESaISt4pairIKS6_S6_EEESaISF_EE17_M_deallocate_mapEPPSF_m, symObjAddr: 0x23C0, symBinAddr: 0x100004920, symSize: 0x60 }
  - { offset: 0x24432, size: 0x8, addend: 0x0, symName: __ZNSt11_Deque_baseISt13unordered_mapINSt7__cxx1112basic_stringIcSt11char_traitsIcESaIcEEES6_St4hashIS6_ESt8equal_toIS6_ESaISt4pairIKS6_S6_EEESaISF_EE16_M_destroy_nodesEPPSF_SJ_, symObjAddr: 0x2360, symBinAddr: 0x1000048C0, symSize: 0x60 }
  - { offset: 0x244A2, size: 0x8, addend: 0x0, symName: __ZNSt11_Deque_baseISt13unordered_mapINSt7__cxx1112basic_stringIcSt11char_traitsIcESaIcEEES6_St4hashIS6_ESt8equal_toIS6_ESaISt4pairIKS6_S6_EEESaISF_EE17_M_initialize_mapEm, symObjAddr: 0x21C8, symBinAddr: 0x100004728, symSize: 0x198 }
  - { offset: 0x2454A, size: 0x8, addend: 0x0, symName: __ZNSt11_Deque_baseISt13unordered_mapINSt7__cxx1112basic_stringIcSt11char_traitsIcESaIcEEES6_St4hashIS6_ESt8equal_toIS6_ESaISt4pairIKS6_S6_EEESaISF_EE11_Deque_implC1Ev, symObjAddr: 0x2190, symBinAddr: 0x1000046F0, symSize: 0x38 }
  - { offset: 0x245B7, size: 0x8, addend: 0x0, symName: __ZNSt10_HashtableINSt7__cxx1112basic_stringIcSt11char_traitsIcESaIcEEESt4pairIKS5_S5_ESaIS8_ENSt8__detail10_Select1stESt8equal_toIS5_ESt4hashIS5_ENSA_18_Mod_range_hashingENSA_20_Default_ranged_hashENSA_20_Prime_rehash_policyENSA_17_Hashtable_traitsILb1ELb0ELb1EEEE21_M_deallocate_bucketsEPPNSA_15_Hash_node_baseEm, symObjAddr: 0x2144, symBinAddr: 0x1000046A4, symSize: 0x4C }
  - { offset: 0x24644, size: 0x8, addend: 0x0, symName: __ZNSt10_HashtableINSt7__cxx1112basic_stringIcSt11char_traitsIcESaIcEEESt4pairIKS5_S5_ESaIS8_ENSt8__detail10_Select1stESt8equal_toIS5_ESt4hashIS5_ENSA_18_Mod_range_hashingENSA_20_Default_ranged_hashENSA_20_Prime_rehash_policyENSA_17_Hashtable_traitsILb1ELb0ELb1EEEE18_M_assign_elementsIRKSL_EEvOT_, symObjAddr: 0x1F68, symBinAddr: 0x1000044C8, symSize: 0x1DC }
  - { offset: 0x246D3, size: 0x8, addend: 0x0, symName: __ZNSt10_HashtableINSt7__cxx1112basic_stringIcSt11char_traitsIcESaIcEEESt4pairIKS5_S5_ESaIS8_ENSt8__detail10_Select1stESt8equal_toIS5_ESt4hashIS5_ENSA_18_Mod_range_hashingENSA_20_Default_ranged_hashENSA_20_Prime_rehash_policyENSA_17_Hashtable_traitsILb1ELb0ELb1EEEE8_M_resetEv, symObjAddr: 0x1F10, symBinAddr: 0x100004470, symSize: 0x58 }
  - { offset: 0x2472A, size: 0x8, addend: 0x0, symName: __ZNSt8__detail16_Hashtable_allocISaINS_10_Hash_nodeISt4pairIKNSt7__cxx1112basic_stringIcSt11char_traitsIcESaIcEEES8_ELb1EEEEE19_M_deallocate_nodesEPSB_, symObjAddr: 0x1EC0, symBinAddr: 0x100004420, symSize: 0x50 }
  - { offset: 0x24789, size: 0x8, addend: 0x0, symName: __ZNKSt10_HashtableINSt7__cxx1112basic_stringIcSt11char_traitsIcESaIcEEESt4pairIKS5_S5_ESaIS8_ENSt8__detail10_Select1stESt8equal_toIS5_ESt4hashIS5_ENSA_18_Mod_range_hashingENSA_20_Default_ranged_hashENSA_20_Prime_rehash_policyENSA_17_Hashtable_traitsILb1ELb0ELb1EEEE8_M_beginEv, symObjAddr: 0x1EA8, symBinAddr: 0x100004408, symSize: 0x18 }
  - { offset: 0x247C5, size: 0x8, addend: 0x0, symName: __ZNSt8__detail16_Hashtable_allocISaINS_10_Hash_nodeISt4pairIKNSt7__cxx1112basic_stringIcSt11char_traitsIcESaIcEEES8_ELb1EEEEE17_M_node_allocatorEv, symObjAddr: 0x1E8C, symBinAddr: 0x1000043EC, symSize: 0x1C }
  - { offset: 0x247EF, size: 0x8, addend: 0x0, symName: __ZNSt5dequeISt13unordered_mapINSt7__cxx1112basic_stringIcSt11char_traitsIcESaIcEEES6_St4hashIS6_ESt8equal_toIS6_ESaISt4pairIKS6_S6_EEESaISF_EE8pop_backEv, symObjAddr: 0x1E00, symBinAddr: 0x100004360, symSize: 0x8C }
  - { offset: 0x2487A, size: 0x8, addend: 0x0, symName: __ZNSt10_HashtableINSt7__cxx1112basic_stringIcSt11char_traitsIcESaIcEEESt4pairIKS5_S5_ESaIS8_ENSt8__detail10_Select1stESt8equal_toIS5_ESt4hashIS5_ENSA_18_Mod_range_hashingENSA_20_Default_ranged_hashENSA_20_Prime_rehash_policyENSA_17_Hashtable_traitsILb1ELb0ELb1EEEE9_M_assignIRKSL_NSA_10_AllocNodeISaINSA_10_Hash_nodeIS8_Lb1EEEEEEEEvOT_RKT0_, symObjAddr: 0x1C00, symBinAddr: 0x100004160, symSize: 0x200 }
  - { offset: 0x24A02, size: 0x8, addend: 0x0, symName: __ZNSt8__detail10_AllocNodeISaINS_10_Hash_nodeISt4pairIKNSt7__cxx1112basic_stringIcSt11char_traitsIcESaIcEEES8_ELb1EEEEEC1ERNS_16_Hashtable_allocISC_EE, symObjAddr: 0x1BDC, symBinAddr: 0x10000413C, symSize: 0x24 }
  - { offset: 0x24A62, size: 0x8, addend: 0x0, symName: __ZNSt8__detail16_Hashtable_allocISaINS_10_Hash_nodeISt4pairIKNSt7__cxx1112basic_stringIcSt11char_traitsIcESaIcEEES8_ELb1EEEEEC2ISC_EEOT_, symObjAddr: 0x1BAC, symBinAddr: 0x10000410C, symSize: 0x30 }
  - { offset: 0x24AAF, size: 0x8, addend: 0x0, symName: __ZNKSt8__detail16_Hashtable_allocISaINS_10_Hash_nodeISt4pairIKNSt7__cxx1112basic_stringIcSt11char_traitsIcESaIcEEES8_ELb1EEEEE17_M_node_allocatorEv, symObjAddr: 0x1B90, symBinAddr: 0x1000040F0, symSize: 0x1C }
  - { offset: 0x24AD9, size: 0x8, addend: 0x0, symName: __ZNSt5dequeISt13unordered_mapINSt7__cxx1112basic_stringIcSt11char_traitsIcESaIcEEES6_St4hashIS6_ESt8equal_toIS6_ESaISt4pairIKS6_S6_EEESaISF_EE4backEv, symObjAddr: 0x1B5C, symBinAddr: 0x1000040BC, symSize: 0x34 }
  - { offset: 0x24B14, size: 0x8, addend: 0x0, symName: __ZNSt5dequeISt13unordered_mapINSt7__cxx1112basic_stringIcSt11char_traitsIcESaIcEEES6_St4hashIS6_ESt8equal_toIS6_ESaISt4pairIKS6_S6_EEESaISF_EE9push_backERKSF_, symObjAddr: 0x1A5C, symBinAddr: 0x100003FBC, symSize: 0x100 }
  - { offset: 0x24BB3, size: 0x8, addend: 0x0, symName: __ZNKSt5dequeISt13unordered_mapINSt7__cxx1112basic_stringIcSt11char_traitsIcESaIcEEES6_St4hashIS6_ESt8equal_toIS6_ESaISt4pairIKS6_S6_EEESaISF_EE4sizeEv, symObjAddr: 0x1A2C, symBinAddr: 0x100003F8C, symSize: 0x30 }
  - { offset: 0x24BDD, size: 0x8, addend: 0x0, symName: __ZNSt8__detail9_Map_baseINSt7__cxx1112basic_stringIcSt11char_traitsIcESaIcEEESt4pairIKS6_S6_ESaIS9_ENS_10_Select1stESt8equal_toIS6_ESt4hashIS6_ENS_18_Mod_range_hashingENS_20_Default_ranged_hashENS_20_Prime_rehash_policyENS_17_Hashtable_traitsILb1ELb0ELb1EEELb1EEixERS8_, symObjAddr: 0x190C, symBinAddr: 0x100003E6C, symSize: 0x120 }
  - { offset: 0x24CE3, size: 0x8, addend: 0x0, symName: __ZNSt10_HashtableINSt7__cxx1112basic_stringIcSt11char_traitsIcESaIcEEESt4pairIKS5_S5_ESaIS8_ENSt8__detail10_Select1stESt8equal_toIS5_ESt4hashIS5_ENSA_18_Mod_range_hashingENSA_20_Default_ranged_hashENSA_20_Prime_rehash_policyENSA_17_Hashtable_traitsILb1ELb0ELb1EEEE3endEv, symObjAddr: 0x18E8, symBinAddr: 0x100003E48, symSize: 0x24 }
  - { offset: 0x24D0D, size: 0x8, addend: 0x0, symName: __ZNSt10_HashtableINSt7__cxx1112basic_stringIcSt11char_traitsIcESaIcEEESt4pairIKS5_S5_ESaIS8_ENSt8__detail10_Select1stESt8equal_toIS5_ESt4hashIS5_ENSA_18_Mod_range_hashingENSA_20_Default_ranged_hashENSA_20_Prime_rehash_policyENSA_17_Hashtable_traitsILb1ELb0ELb1EEEE4findERS7_, symObjAddr: 0x17F0, symBinAddr: 0x100003D50, symSize: 0xF8 }
  - { offset: 0x24D8E, size: 0x8, addend: 0x0, symName: __ZNSt5dequeISt13unordered_mapINSt7__cxx1112basic_stringIcSt11char_traitsIcESaIcEEES6_St4hashIS6_ESt8equal_toIS6_ESaISt4pairIKS6_S6_EEESaISF_EE15_M_destroy_dataESt15_Deque_iteratorISF_RSF_PSF_ESL_RKSG_, symObjAddr: 0x179C, symBinAddr: 0x100003CFC, symSize: 0x54 }
  - { offset: 0x24DE9, size: 0x8, addend: 0x0, symName: __ZNSt11_Deque_baseISt13unordered_mapINSt7__cxx1112basic_stringIcSt11char_traitsIcESaIcEEES6_St4hashIS6_ESt8equal_toIS6_ESaISt4pairIKS6_S6_EEESaISF_EE19_M_get_Tp_allocatorEv, symObjAddr: 0x1788, symBinAddr: 0x100003CE8, symSize: 0x14 }
  - { offset: 0x24E13, size: 0x8, addend: 0x0, symName: __ZNSt5dequeISt13unordered_mapINSt7__cxx1112basic_stringIcSt11char_traitsIcESaIcEEES6_St4hashIS6_ESt8equal_toIS6_ESaISt4pairIKS6_S6_EEESaISF_EE3endEv, symObjAddr: 0x1750, symBinAddr: 0x100003CB0, symSize: 0x38 }
  - { offset: 0x24E3D, size: 0x8, addend: 0x0, symName: __ZNSt5dequeISt13unordered_mapINSt7__cxx1112basic_stringIcSt11char_traitsIcESaIcEEES6_St4hashIS6_ESt8equal_toIS6_ESaISt4pairIKS6_S6_EEESaISF_EE5beginEv, symObjAddr: 0x1718, symBinAddr: 0x100003C78, symSize: 0x38 }
  - { offset: 0x24E8B, size: 0x8, addend: 0x0, symName: __ZNSt11_Deque_baseISt13unordered_mapINSt7__cxx1112basic_stringIcSt11char_traitsIcESaIcEEES6_St4hashIS6_ESt8equal_toIS6_ESaISt4pairIKS6_S6_EEESaISF_EED2Ev, symObjAddr: 0x16AC, symBinAddr: 0x100003C0C, symSize: 0x6C }
  - { offset: 0x24ECB, size: 0x8, addend: 0x0, symName: __ZNSt11_Deque_baseISt13unordered_mapINSt7__cxx1112basic_stringIcSt11char_traitsIcESaIcEEES6_St4hashIS6_ESt8equal_toIS6_ESaISt4pairIKS6_S6_EEESaISF_EEC2Ev, symObjAddr: 0x1664, symBinAddr: 0x100003BC4, symSize: 0x48 }
  - { offset: 0x24F19, size: 0x8, addend: 0x0, symName: __ZNSt11_Deque_baseISt13unordered_mapINSt7__cxx1112basic_stringIcSt11char_traitsIcESaIcEEES6_St4hashIS6_ESt8equal_toIS6_ESaISt4pairIKS6_S6_EEESaISF_EE11_Deque_implD1Ev, symObjAddr: 0x1638, symBinAddr: 0x100003B98, symSize: 0x2C }
  - { offset: 0x24F63, size: 0x8, addend: 0x0, symName: __ZNSt10_HashtableINSt7__cxx1112basic_stringIcSt11char_traitsIcESaIcEEESt4pairIKS5_S5_ESaIS8_ENSt8__detail10_Select1stESt8equal_toIS5_ESt4hashIS5_ENSA_18_Mod_range_hashingENSA_20_Default_ranged_hashENSA_20_Prime_rehash_policyENSA_17_Hashtable_traitsILb1ELb0ELb1EEEE21_M_deallocate_bucketsEv, symObjAddr: 0x1604, symBinAddr: 0x100003B64, symSize: 0x34 }
  - { offset: 0x24F8D, size: 0x8, addend: 0x0, symName: __ZNSt10_HashtableINSt7__cxx1112basic_stringIcSt11char_traitsIcESaIcEEESt4pairIKS5_S5_ESaIS8_ENSt8__detail10_Select1stESt8equal_toIS5_ESt4hashIS5_ENSA_18_Mod_range_hashingENSA_20_Default_ranged_hashENSA_20_Prime_rehash_policyENSA_17_Hashtable_traitsILb1ELb0ELb1EEEE5clearEv, symObjAddr: 0x15A4, symBinAddr: 0x100003B04, symSize: 0x60 }
  - { offset: 0x24FDB, size: 0x8, addend: 0x0, symName: __ZNSt15__new_allocatorINSt8__detail10_Hash_nodeISt4pairIKNSt7__cxx1112basic_stringIcSt11char_traitsIcESaIcEEES8_ELb1EEEED2Ev, symObjAddr: 0x1590, symBinAddr: 0x100003AF0, symSize: 0x14 }
  - { offset: 0x25017, size: 0x8, addend: 0x0, symName: __ZNSt7__cxx1112basic_stringIcSt11char_traitsIcESaIcEE12_M_constructIPKcEEvT_S8_St20forward_iterator_tag, symObjAddr: 0x1490, symBinAddr: 0x1000039F0, symSize: 0x100 }
  - { offset: 0x25120, size: 0x8, addend: 0x0, symName: __ZZNSt7__cxx1112basic_stringIcSt11char_traitsIcESaIcEE12_M_constructIPKcEEvT_S8_St20forward_iterator_tagEN6_GuardC1EPS4_, symObjAddr: 0x1438, symBinAddr: 0x100003998, symSize: 0x24 }
  - { offset: 0x25153, size: 0x8, addend: 0x0, symName: __ZZNSt7__cxx1112basic_stringIcSt11char_traitsIcESaIcEE12_M_constructIPKcEEvT_S8_St20forward_iterator_tagEN6_GuardD1Ev, symObjAddr: 0x145C, symBinAddr: 0x1000039BC, symSize: 0x34 }
  - { offset: 0x25253, size: 0x8, addend: 0x0, symName: __ZNSt15__new_allocatorIcED2Ev, symObjAddr: 0x1424, symBinAddr: 0x100003984, symSize: 0x14 }
  - { offset: 0x252B7, size: 0x8, addend: 0x0, symName: __ZN9__gnu_cxx11char_traitsIcE2eqERKcS3_, symObjAddr: 0x13F4, symBinAddr: 0x100003954, symSize: 0x30 }
  - { offset: 0x252F0, size: 0x8, addend: 0x0, symName: __ZSteqIcSt11char_traitsIcESaIcEEbRKNSt7__cxx1112basic_stringIT_T0_T1_EEPKS5_, symObjAddr: 0x1380, symBinAddr: 0x1000038E0, symSize: 0x74 }
  - { offset: 0x2534A, size: 0x8, addend: 0x0, symName: __ZNSt10_HashtableINSt7__cxx1112basic_stringIcSt11char_traitsIcESaIcEEESt4pairIKS5_S5_ESaIS8_ENSt8__detail10_Select1stESt8equal_toIS5_ESt4hashIS5_ENSA_18_Mod_range_hashingENSA_20_Default_ranged_hashENSA_20_Prime_rehash_policyENSA_17_Hashtable_traitsILb1ELb0ELb1EEEEaSERKSL_, symObjAddr: 0x11F0, symBinAddr: 0x100003750, symSize: 0x190 }
  - { offset: 0x25492, size: 0x8, addend: 0x0, symName: __ZNSt5stackISt13unordered_mapINSt7__cxx1112basic_stringIcSt11char_traitsIcESaIcEEES6_St4hashIS6_ESt8equal_toIS6_ESaISt4pairIKS6_S6_EEESt5dequeISF_SaISF_EEE3popEv, symObjAddr: 0x11D0, symBinAddr: 0x100003730, symSize: 0x20 }
  - { offset: 0x254F5, size: 0x8, addend: 0x0, symName: __ZNSt10_HashtableINSt7__cxx1112basic_stringIcSt11char_traitsIcESaIcEEESt4pairIKS5_S5_ESaIS8_ENSt8__detail10_Select1stESt8equal_toIS5_ESt4hashIS5_ENSA_18_Mod_range_hashingENSA_20_Default_ranged_hashENSA_20_Prime_rehash_policyENSA_17_Hashtable_traitsILb1ELb0ELb1EEEEC1ERKSL_, symObjAddr: 0x10B4, symBinAddr: 0x100003614, symSize: 0x11C }
  - { offset: 0x25635, size: 0x8, addend: 0x0, symName: __ZNSt5stackISt13unordered_mapINSt7__cxx1112basic_stringIcSt11char_traitsIcESaIcEEES6_St4hashIS6_ESt8equal_toIS6_ESaISt4pairIKS6_S6_EEESt5dequeISF_SaISF_EEE3topEv, symObjAddr: 0x1098, symBinAddr: 0x1000035F8, symSize: 0x1C }
  - { offset: 0x2565F, size: 0x8, addend: 0x0, symName: __ZNSt5stackISt13unordered_mapINSt7__cxx1112basic_stringIcSt11char_traitsIcESaIcEEES6_St4hashIS6_ESt8equal_toIS6_ESaISt4pairIKS6_S6_EEESt5dequeISF_SaISF_EEE4pushERKSF_, symObjAddr: 0x1070, symBinAddr: 0x1000035D0, symSize: 0x28 }
  - { offset: 0x2569A, size: 0x8, addend: 0x0, symName: __ZNKSt5stackISt13unordered_mapINSt7__cxx1112basic_stringIcSt11char_traitsIcESaIcEEES6_St4hashIS6_ESt8equal_toIS6_ESaISt4pairIKS6_S6_EEESt5dequeISF_SaISF_EEE4sizeEv, symObjAddr: 0x1054, symBinAddr: 0x1000035B4, symSize: 0x1C }
  - { offset: 0x256C4, size: 0x8, addend: 0x0, symName: __ZNSt13unordered_mapINSt7__cxx1112basic_stringIcSt11char_traitsIcESaIcEEES5_St4hashIS5_ESt8equal_toIS5_ESaISt4pairIKS5_S5_EEEixERSB_, symObjAddr: 0x1030, symBinAddr: 0x100003590, symSize: 0x24 }
  - { offset: 0x25702, size: 0x8, addend: 0x0, symName: __ZNSt8__detaileqERKNS_19_Node_iterator_baseISt4pairIKNSt7__cxx1112basic_stringIcSt11char_traitsIcESaIcEEES7_ELb1EEESC_, symObjAddr: 0x1000, symBinAddr: 0x100003560, symSize: 0x30 }
  - { offset: 0x25741, size: 0x8, addend: 0x0, symName: __ZNSt13unordered_mapINSt7__cxx1112basic_stringIcSt11char_traitsIcESaIcEEES5_St4hashIS5_ESt8equal_toIS5_ESaISt4pairIKS5_S5_EEE3endEv, symObjAddr: 0xFE4, symBinAddr: 0x100003544, symSize: 0x1C }
  - { offset: 0x2576B, size: 0x8, addend: 0x0, symName: __ZNSt13unordered_mapINSt7__cxx1112basic_stringIcSt11char_traitsIcESaIcEEES5_St4hashIS5_ESt8equal_toIS5_ESaISt4pairIKS5_S5_EEE4findERSB_, symObjAddr: 0xFC0, symBinAddr: 0x100003520, symSize: 0x24 }
  - { offset: 0x257CA, size: 0x8, addend: 0x0, symName: __ZNSt5dequeISt13unordered_mapINSt7__cxx1112basic_stringIcSt11char_traitsIcESaIcEEES6_St4hashIS6_ESt8equal_toIS6_ESaISt4pairIKS6_S6_EEESaISF_EED1Ev, symObjAddr: 0xF58, symBinAddr: 0x1000034B8, symSize: 0x68 }
  - { offset: 0x25819, size: 0x8, addend: 0x0, symName: __ZNSt5stackISt13unordered_mapINSt7__cxx1112basic_stringIcSt11char_traitsIcESaIcEEES6_St4hashIS6_ESt8equal_toIS6_ESaISt4pairIKS6_S6_EEESt5dequeISF_SaISF_EEEC1ISI_vEEv, symObjAddr: 0xF1C, symBinAddr: 0x10000347C, symSize: 0x3C }
  - { offset: 0x25867, size: 0x8, addend: 0x0, symName: __ZNSt5dequeISt13unordered_mapINSt7__cxx1112basic_stringIcSt11char_traitsIcESaIcEEES6_St4hashIS6_ESt8equal_toIS6_ESaISt4pairIKS6_S6_EEESaISF_EEC1Ev, symObjAddr: 0xEFC, symBinAddr: 0x10000345C, symSize: 0x20 }
  - { offset: 0x258B1, size: 0x8, addend: 0x0, symName: __ZNSt10_HashtableINSt7__cxx1112basic_stringIcSt11char_traitsIcESaIcEEESt4pairIKS5_S5_ESaIS8_ENSt8__detail10_Select1stESt8equal_toIS5_ESt4hashIS5_ENSA_18_Mod_range_hashingENSA_20_Default_ranged_hashENSA_20_Prime_rehash_policyENSA_17_Hashtable_traitsILb1ELb0ELb1EEEED1Ev, symObjAddr: 0xECC, symBinAddr: 0x10000342C, symSize: 0x30 }
  - { offset: 0x25911, size: 0x8, addend: 0x0, symName: __ZNSt8__detail21_Hashtable_ebo_helperILi0ESaINS_10_Hash_nodeISt4pairIKNSt7__cxx1112basic_stringIcSt11char_traitsIcESaIcEEES8_ELb1EEEELb1EEC2Ev, symObjAddr: 0xEA0, symBinAddr: 0x100003400, symSize: 0x2C }
  - { offset: 0x25998, size: 0x8, addend: 0x0, symName: __ZNSt8__detail21_Hashtable_ebo_helperILi0ESt8equal_toINSt7__cxx1112basic_stringIcSt11char_traitsIcESaIcEEEELb1EEC2Ev, symObjAddr: 0xE8C, symBinAddr: 0x1000033EC, symSize: 0x14 }
  - { offset: 0x259D8, size: 0x8, addend: 0x0, symName: __ZNSt8__detail21_Hashtable_ebo_helperILi1ESt4hashINSt7__cxx1112basic_stringIcSt11char_traitsIcESaIcEEEELb1EEC2Ev, symObjAddr: 0xE78, symBinAddr: 0x1000033D8, symSize: 0x14 }
  - { offset: 0x25A45, size: 0x8, addend: 0x0, symName: __ZNSt7__cxx1112basic_stringIcSt11char_traitsIcESaIcEEC1IS3_EEPKcRKS3_, symObjAddr: 0xDDC, symBinAddr: 0x10000333C, symSize: 0x9C }
  - { offset: 0x25AA6, size: 0x8, addend: 0x0, symName: __ZSt3maxImERKT_S2_S2_, symObjAddr: 0xDA4, symBinAddr: 0x100003304, symSize: 0x38 }
  - { offset: 0x25B4B, size: 0x8, addend: 0x0, symName: __ZNSt7__cxx1112basic_stringIcSt11char_traitsIcESaIcEE12_Alloc_hiderD1Ev, symObjAddr: 0xD78, symBinAddr: 0x1000032D8, symSize: 0x2C }
  - { offset: 0x25B90, size: 0x8, addend: 0x0, symName: __ZN9__gnu_cxx11char_traitsIcE6lengthEPKc, symObjAddr: 0xD20, symBinAddr: 0x100003280, symSize: 0x58 }
  - { offset: 0x25BD0, size: 0x8, addend: 0x0, symName: _main, symObjAddr: 0x728, symBinAddr: 0x100002C88, symSize: 0x5F8 }
  - { offset: 0x261E4, size: 0x8, addend: 0x0, symName: __ZN5CacheD1Ev, symObjAddr: 0x6FC, symBinAddr: 0x100002C5C, symSize: 0x2C }
  - { offset: 0x2620A, size: 0x8, addend: 0x0, symName: __ZN5Cache8rollbackEv, symObjAddr: 0x690, symBinAddr: 0x100002BF0, symSize: 0x6C }
  - { offset: 0x26245, size: 0x8, addend: 0x0, symName: __ZNSt13unordered_mapINSt7__cxx1112basic_stringIcSt11char_traitsIcESaIcEEES5_St4hashIS5_ESt8equal_toIS5_ESaISt4pairIKS5_S5_EEEaSERKSE_, symObjAddr: 0x668, symBinAddr: 0x100002BC8, symSize: 0x28 }
  - { offset: 0x26297, size: 0x8, addend: 0x0, symName: __ZNSt13unordered_mapINSt7__cxx1112basic_stringIcSt11char_traitsIcESaIcEEES5_St4hashIS5_ESt8equal_toIS5_ESaISt4pairIKS5_S5_EEEC1ERKSE_, symObjAddr: 0x640, symBinAddr: 0x100002BA0, symSize: 0x28 }
  - { offset: 0x262C6, size: 0x8, addend: 0x0, symName: __ZN5Cache16beginTransactionEv, symObjAddr: 0x5D4, symBinAddr: 0x100002B34, symSize: 0x6C }
  - { offset: 0x262F0, size: 0x8, addend: 0x0, symName: __ZN5Cache3putENSt7__cxx1112basic_stringIcSt11char_traitsIcESaIcEEES5_, symObjAddr: 0x5A0, symBinAddr: 0x100002B00, symSize: 0x34 }
  - { offset: 0x2633C, size: 0x8, addend: 0x0, symName: __ZN5Cache3getENSt7__cxx1112basic_stringIcSt11char_traitsIcESaIcEEE, symObjAddr: 0x4E0, symBinAddr: 0x100002A40, symSize: 0xC0 }
  - { offset: 0x26414, size: 0x8, addend: 0x0, symName: __ZN5CacheC1Ev, symObjAddr: 0x498, symBinAddr: 0x1000029F8, symSize: 0x48 }
  - { offset: 0x26461, size: 0x8, addend: 0x0, symName: __ZNSt5stackISt13unordered_mapINSt7__cxx1112basic_stringIcSt11char_traitsIcESaIcEEES6_St4hashIS6_ESt8equal_toIS6_ESaISt4pairIKS6_S6_EEESt5dequeISF_SaISF_EEED1Ev, symObjAddr: 0x478, symBinAddr: 0x1000029D8, symSize: 0x20 }
  - { offset: 0x264AE, size: 0x8, addend: 0x0, symName: __ZNSt13unordered_mapINSt7__cxx1112basic_stringIcSt11char_traitsIcESaIcEEES5_St4hashIS5_ESt8equal_toIS5_ESaISt4pairIKS5_S5_EEED1Ev, symObjAddr: 0x458, symBinAddr: 0x1000029B8, symSize: 0x20 }
  - { offset: 0x264EE, size: 0x8, addend: 0x0, symName: __ZNSt13unordered_mapINSt7__cxx1112basic_stringIcSt11char_traitsIcESaIcEEES5_St4hashIS5_ESt8equal_toIS5_ESaISt4pairIKS5_S5_EEEC1Ev, symObjAddr: 0x438, symBinAddr: 0x100002998, symSize: 0x20 }
  - { offset: 0x2652E, size: 0x8, addend: 0x0, symName: __ZNSt10_HashtableINSt7__cxx1112basic_stringIcSt11char_traitsIcESaIcEEESt4pairIKS5_S5_ESaIS8_ENSt8__detail10_Select1stESt8equal_toIS5_ESt4hashIS5_ENSA_18_Mod_range_hashingENSA_20_Default_ranged_hashENSA_20_Prime_rehash_policyENSA_17_Hashtable_traitsILb1ELb0ELb1EEEEC1Ev, symObjAddr: 0x3C8, symBinAddr: 0x100002928, symSize: 0x70 }
  - { offset: 0x2657C, size: 0x8, addend: 0x0, symName: __ZNSt8__detail16_Hashtable_allocISaINS_10_Hash_nodeISt4pairIKNSt7__cxx1112basic_stringIcSt11char_traitsIcESaIcEEES8_ELb1EEEEED2Ev, symObjAddr: 0x3A8, symBinAddr: 0x100002908, symSize: 0x20 }
  - { offset: 0x265BC, size: 0x8, addend: 0x0, symName: __ZNSt8__detail16_Hashtable_allocISaINS_10_Hash_nodeISt4pairIKNSt7__cxx1112basic_stringIcSt11char_traitsIcESaIcEEES8_ELb1EEEEEC2Ev, symObjAddr: 0x388, symBinAddr: 0x1000028E8, symSize: 0x20 }
  - { offset: 0x2660A, size: 0x8, addend: 0x0, symName: __ZNSt8__detail21_Hashtable_ebo_helperILi0ESaINS_10_Hash_nodeISt4pairIKNSt7__cxx1112basic_stringIcSt11char_traitsIcESaIcEEES8_ELb1EEEELb1EED2Ev, symObjAddr: 0x35C, symBinAddr: 0x1000028BC, symSize: 0x2C }
  - { offset: 0x2666E, size: 0x8, addend: 0x0, symName: __ZNSt8__detail15_Hashtable_baseINSt7__cxx1112basic_stringIcSt11char_traitsIcESaIcEEESt4pairIKS6_S6_ENS_10_Select1stESt8equal_toIS6_ESt4hashIS6_ENS_18_Mod_range_hashingENS_20_Default_ranged_hashENS_17_Hashtable_traitsILb1ELb0ELb1EEEEC2Ev, symObjAddr: 0x334, symBinAddr: 0x100002894, symSize: 0x28 }
  - { offset: 0x266AE, size: 0x8, addend: 0x0, symName: __ZNSt8__detail15_Hash_code_baseINSt7__cxx1112basic_stringIcSt11char_traitsIcESaIcEEESt4pairIKS6_S6_ENS_10_Select1stESt4hashIS6_ENS_18_Mod_range_hashingENS_20_Default_ranged_hashELb1EEC2Ev, symObjAddr: 0x314, symBinAddr: 0x100002874, symSize: 0x20 }
  - { offset: 0x266D0, size: 0x8, addend: 0x0, symName: __ZSt16__deque_buf_sizem, symObjAddr: 0x2E4, symBinAddr: 0x100002844, symSize: 0x30 }
  - { offset: 0x266F9, size: 0x8, addend: 0x0, symName: __ZSt3minImERKT_S2_S2_, symObjAddr: 0x2AC, symBinAddr: 0x10000280C, symSize: 0x38 }
  - { offset: 0x2673F, size: 0x8, addend: 0x0, symName: __ZNSt8__detail20_Prime_rehash_policy8_M_resetEm, symObjAddr: 0x288, symBinAddr: 0x1000027E8, symSize: 0x24 }
  - { offset: 0x2677A, size: 0x8, addend: 0x0, symName: __ZNSt8__detail20_Prime_rehash_policy8_M_resetEv, symObjAddr: 0x26C, symBinAddr: 0x1000027CC, symSize: 0x1C }
  - { offset: 0x267A4, size: 0x8, addend: 0x0, symName: __ZNKSt8__detail20_Prime_rehash_policy8_M_stateEv, symObjAddr: 0x254, symBinAddr: 0x1000027B4, symSize: 0x18 }
  - { offset: 0x267F6, size: 0x8, addend: 0x0, symName: __ZNSt8__detail20_Prime_rehash_policyC1Ef, symObjAddr: 0x228, symBinAddr: 0x100002788, symSize: 0x2C }
  - { offset: 0x26825, size: 0x8, addend: 0x0, symName: __ZNKSt8__detail18_Mod_range_hashingclEmm, symObjAddr: 0x1F8, symBinAddr: 0x100002758, symSize: 0x30 }
  - { offset: 0x2688B, size: 0x8, addend: 0x0, symName: __ZNSt8__detail15_Hash_node_baseC1Ev, symObjAddr: 0x1DC, symBinAddr: 0x10000273C, symSize: 0x1C }
  - { offset: 0x268B5, size: 0x8, addend: 0x0, symName: __ZNSt8__detail15_Hash_node_baseC2Ev, symObjAddr: 0x1C0, symBinAddr: 0x100002720, symSize: 0x1C }
  - { offset: 0x268D7, size: 0x8, addend: 0x0, symName: __ZNSt10_Hash_impl4hashEPKvmm, symObjAddr: 0x194, symBinAddr: 0x1000026F4, symSize: 0x2C }
  - { offset: 0x26920, size: 0x8, addend: 0x0, symName: __ZNSt11char_traitsIcE6lengthEPKc, symObjAddr: 0x158, symBinAddr: 0x1000026B8, symSize: 0x3C }
  - { offset: 0x26964, size: 0x8, addend: 0x0, symName: __ZNSt11char_traitsIcE7compareEPKcS2_m, symObjAddr: 0x68, symBinAddr: 0x1000025C8, symSize: 0xF0 }
  - { offset: 0x269EE, size: 0x8, addend: 0x0, symName: __ZNSt11char_traitsIcE2ltERKcS2_, symObjAddr: 0x30, symBinAddr: 0x100002590, symSize: 0x38 }
  - { offset: 0x26A30, size: 0x8, addend: 0x0, symName: __ZdlPvS_, symObjAddr: 0x18, symBinAddr: 0x100002578, symSize: 0x18 }
  - { offset: 0x26A66, size: 0x8, addend: 0x0, symName: __ZnwmPv, symObjAddr: 0x0, symBinAddr: 0x100002560, symSize: 0x18 }
...
